target datalayout = "e-m:e-p270:32:32-p271:32:32-p272:64:64-i64:64-i128:128-f80:128-n8:16:32:64-S128"
target triple = "x86_64-pc-linux-gnu"

@Curl_cmalloc = external global ptr, align 8
@.str.38 = private unnamed_addr constant [3 x i8] c"./\00", align 1
@.str.39 = private unnamed_addr constant [4 x i8] c"../\00", align 1
@.str.40 = private unnamed_addr constant [2 x i8] c".\00", align 1
@.str.41 = private unnamed_addr constant [3 x i8] c"..\00", align 1
@.str.42 = private unnamed_addr constant [3 x i8] c".?\00", align 1
@.str.43 = private unnamed_addr constant [4 x i8] c"..?\00", align 1
@.str.44 = private unnamed_addr constant [4 x i8] c"/./\00", align 1
@.str.45 = private unnamed_addr constant [3 x i8] c"/.\00", align 1
@.str.46 = private unnamed_addr constant [4 x i8] c"/.?\00", align 1
@.str.47 = private unnamed_addr constant [5 x i8] c"/../\00", align 1
@.str.48 = private unnamed_addr constant [4 x i8] c"/..\00", align 1
@.str.49 = private unnamed_addr constant [5 x i8] c"/..?\00", align 1

; Function Attrs: nounwind uwtable
define internal i32 @dedotdotify(ptr noundef %0, i64 noundef %1, ptr noundef %2) #0 {
  %4 = alloca i32, align 4
  %5 = alloca ptr, align 8
  %6 = alloca i64, align 8
  %7 = alloca ptr, align 8
  %8 = alloca ptr, align 8
  %9 = alloca ptr, align 8
  %10 = alloca ptr, align 8
  %11 = alloca i8, align 1
  store ptr %0, ptr %5, align 8
  store i64 %1, ptr %6, align 8
  store ptr %2, ptr %7, align 8
  %12 = load ptr, ptr %5, align 8
  %13 = load i64, ptr %6, align 8
  %14 = getelementptr inbounds i8, ptr %12, i64 %13
  store ptr %14, ptr %9, align 8
  %15 = load ptr, ptr %7, align 8
  store ptr null, ptr %15, align 8
  %16 = load i64, ptr %6, align 8
  %17 = icmp ult i64 %16, 2
  br i1 %17, label %23, label %18

18:                                               ; preds = %3
  %19 = load ptr, ptr %5, align 8
  %20 = load i64, ptr %6, align 8
  %21 = call ptr @memchr(ptr noundef %19, i32 noundef 46, i64 noundef %20) #7
  %22 = icmp ne ptr %21, null
  br i1 %22, label %24, label %23

23:                                               ; preds = %18, %3
  store i32 0, ptr %4, align 4
  br label %202

24:                                               ; preds = %18
  %25 = load ptr, ptr @Curl_cmalloc, align 8
  %26 = load i64, ptr %6, align 8
  %27 = add i64 %26, 1
  %28 = call ptr %25(i64 noundef %27)
  store ptr %28, ptr %10, align 8
  %29 = load ptr, ptr %10, align 8
  %30 = icmp ne ptr %29, null
  br i1 %30, label %32, label %31

31:                                               ; preds = %24
  store i32 1, ptr %4, align 4
  br label %202

32:                                               ; preds = %24
  %33 = load ptr, ptr %10, align 8
  store i8 0, ptr %33, align 1
  %34 = load ptr, ptr %10, align 8
  store ptr %34, ptr %8, align 8
  br label %35

35:                                               ; preds = %195, %32
  store i8 1, ptr %11, align 1
  %36 = load ptr, ptr %5, align 8
  %37 = load i8, ptr %36, align 1
  %38 = sext i8 %37 to i32
  %39 = icmp eq i32 %38, 46
  br i1 %39, label %40, label %80

40:                                               ; preds = %35
  %41 = load ptr, ptr %5, align 8
  %42 = call i32 @strncmp(ptr noundef @.str.38, ptr noundef %41, i64 noundef 2) #7
  %43 = icmp ne i32 %42, 0
  br i1 %43, label %49, label %44

44:                                               ; preds = %40
  %45 = load ptr, ptr %5, align 8
  %46 = getelementptr inbounds i8, ptr %45, i64 2
  store ptr %46, ptr %5, align 8
  %47 = load i64, ptr %6, align 8
  %48 = sub i64 %47, 2
  store i64 %48, ptr %6, align 8
  br label %79

49:                                               ; preds = %40
  %50 = load ptr, ptr %5, align 8
  %51 = call i32 @strncmp(ptr noundef @.str.39, ptr noundef %50, i64 noundef 3) #7
  %52 = icmp ne i32 %51, 0
  br i1 %52, label %58, label %53

53:                                               ; preds = %49
  %54 = load ptr, ptr %5, align 8
  %55 = getelementptr inbounds i8, ptr %54, i64 3
  store ptr %55, ptr %5, align 8
  %56 = load i64, ptr %6, align 8
  %57 = sub i64 %56, 3
  store i64 %57, ptr %6, align 8
  br label %78

58:                                               ; preds = %49
  %59 = load ptr, ptr %5, align 8
  %60 = call i32 @strcmp(ptr noundef @.str.40, ptr noundef %59) #7
  %61 = icmp ne i32 %60, 0
  br i1 %61, label %62, label %74

62:                                               ; preds = %58
  %63 = load ptr, ptr %5, align 8
  %64 = call i32 @strcmp(ptr noundef @.str.41, ptr noundef %63) #7
  %65 = icmp ne i32 %64, 0
  br i1 %65, label %66, label %74

66:                                               ; preds = %62
  %67 = load ptr, ptr %5, align 8
  %68 = call i32 @strncmp(ptr noundef @.str.42, ptr noundef %67, i64 noundef 2) #7
  %69 = icmp ne i32 %68, 0
  br i1 %69, label %70, label %74

70:                                               ; preds = %66
  %71 = load ptr, ptr %5, align 8
  %72 = call i32 @strncmp(ptr noundef @.str.43, ptr noundef %71, i64 noundef 3) #7
  %73 = icmp ne i32 %72, 0
  br i1 %73, label %76, label %74

74:                                               ; preds = %70, %66, %62, %58
  %75 = load ptr, ptr %10, align 8
  store i8 0, ptr %75, align 1
  br label %199

76:                                               ; preds = %70
  store i8 0, ptr %11, align 1
  br label %77

77:                                               ; preds = %76
  br label %78

78:                                               ; preds = %77, %53
  br label %79

79:                                               ; preds = %78, %44
  br label %163

80:                                               ; preds = %35
  %81 = load ptr, ptr %5, align 8
  %82 = load i8, ptr %81, align 1
  %83 = sext i8 %82 to i32
  %84 = icmp eq i32 %83, 47
  br i1 %84, label %85, label %161

85:                                               ; preds = %80
  %86 = load ptr, ptr %5, align 8
  %87 = call i32 @strncmp(ptr noundef @.str.44, ptr noundef %86, i64 noundef 3) #7
  %88 = icmp ne i32 %87, 0
  br i1 %88, label %94, label %89

89:                                               ; preds = %85
  %90 = load ptr, ptr %5, align 8
  %91 = getelementptr inbounds i8, ptr %90, i64 2
  store ptr %91, ptr %5, align 8
  %92 = load i64, ptr %6, align 8
  %93 = sub i64 %92, 2
  store i64 %93, ptr %6, align 8
  br label %160

94:                                               ; preds = %85
  %95 = load ptr, ptr %5, align 8
  %96 = call i32 @strcmp(ptr noundef @.str.45, ptr noundef %95) #7
  %97 = icmp ne i32 %96, 0
  br i1 %97, label %98, label %102

98:                                               ; preds = %94
  %99 = load ptr, ptr %5, align 8
  %100 = call i32 @strncmp(ptr noundef @.str.46, ptr noundef %99, i64 noundef 3) #7
  %101 = icmp ne i32 %100, 0
  br i1 %101, label %106, label %102

102:                                              ; preds = %98, %94
  %103 = load ptr, ptr %8, align 8
  %104 = getelementptr inbounds i8, ptr %103, i32 1
  store ptr %104, ptr %8, align 8
  store i8 47, ptr %103, align 1
  %105 = load ptr, ptr %8, align 8
  store i8 0, ptr %105, align 1
  br label %199

106:                                              ; preds = %98
  %107 = load ptr, ptr %5, align 8
  %108 = call i32 @strncmp(ptr noundef @.str.47, ptr noundef %107, i64 noundef 4) #7
  %109 = icmp ne i32 %108, 0
  br i1 %109, label %130, label %110

110:                                              ; preds = %106
  %111 = load ptr, ptr %5, align 8
  %112 = getelementptr inbounds i8, ptr %111, i64 3
  store ptr %112, ptr %5, align 8
  %113 = load i64, ptr %6, align 8
  %114 = sub i64 %113, 3
  store i64 %114, ptr %6, align 8
  br label %115

115:                                              ; preds = %127, %110
  %116 = load ptr, ptr %8, align 8
  %117 = load ptr, ptr %10, align 8
  %118 = icmp ugt ptr %116, %117
  br i1 %118, label %119, label %128

119:                                              ; preds = %115
  %120 = load ptr, ptr %8, align 8
  %121 = getelementptr inbounds i8, ptr %120, i32 -1
  store ptr %121, ptr %8, align 8
  %122 = load ptr, ptr %8, align 8
  %123 = load i8, ptr %122, align 1
  %124 = sext i8 %123 to i32
  %125 = icmp eq i32 %124, 47
  br i1 %125, label %126, label %127

126:                                              ; preds = %119
  br label %128

127:                                              ; preds = %119
  br label %115, !llvm.loop !18

128:                                              ; preds = %126, %115
  %129 = load ptr, ptr %8, align 8
  store i8 0, ptr %129, align 1
  br label %158

130:                                              ; preds = %106
  %131 = load ptr, ptr %5, align 8
  %132 = call i32 @strcmp(ptr noundef @.str.48, ptr noundef %131) #7
  %133 = icmp ne i32 %132, 0
  br i1 %133, label %134, label %138

134:                                              ; preds = %130
  %135 = load ptr, ptr %5, align 8
  %136 = call i32 @strncmp(ptr noundef @.str.49, ptr noundef %135, i64 noundef 4) #7
  %137 = icmp ne i32 %136, 0
  br i1 %137, label %156, label %138

138:                                              ; preds = %134, %130
  br label %139

139:                                              ; preds = %151, %138
  %140 = load ptr, ptr %8, align 8
  %141 = load ptr, ptr %10, align 8
  %142 = icmp ugt ptr %140, %141
  br i1 %142, label %143, label %152

143:                                              ; preds = %139
  %144 = load ptr, ptr %8, align 8
  %145 = getelementptr inbounds i8, ptr %144, i32 -1
  store ptr %145, ptr %8, align 8
  %146 = load ptr, ptr %8, align 8
  %147 = load i8, ptr %146, align 1
  %148 = sext i8 %147 to i32
  %149 = icmp eq i32 %148, 47
  br i1 %149, label %150, label %151

150:                                              ; preds = %143
  br label %152

151:                                              ; preds = %143
  br label %139, !llvm.loop !19

152:                                              ; preds = %150, %139
  %153 = load ptr, ptr %8, align 8
  %154 = getelementptr inbounds i8, ptr %153, i32 1
  store ptr %154, ptr %8, align 8
  store i8 47, ptr %153, align 1
  %155 = load ptr, ptr %8, align 8
  store i8 0, ptr %155, align 1
  br label %199

156:                                              ; preds = %134
  store i8 0, ptr %11, align 1
  br label %157

157:                                              ; preds = %156
  br label %158

158:                                              ; preds = %157, %128
  br label %159

159:                                              ; preds = %158
  br label %160

160:                                              ; preds = %159, %89
  br label %162

161:                                              ; preds = %80
  store i8 0, ptr %11, align 1
  br label %162

162:                                              ; preds = %161, %160
  br label %163

163:                                              ; preds = %162, %79
  %164 = load i8, ptr %11, align 1
  %165 = trunc i8 %164 to i1
  br i1 %165, label %194, label %166

166:                                              ; preds = %163
  br label %167

167:                                              ; preds = %190, %166
  %168 = load ptr, ptr %5, align 8
  %169 = getelementptr inbounds i8, ptr %168, i32 1
  store ptr %169, ptr %5, align 8
  %170 = load i8, ptr %168, align 1
  %171 = load ptr, ptr %8, align 8
  %172 = getelementptr inbounds i8, ptr %171, i32 1
  store ptr %172, ptr %8, align 8
  store i8 %170, ptr %171, align 1
  %173 = load i64, ptr %6, align 8
  %174 = add i64 %173, -1
  store i64 %174, ptr %6, align 8
  br label %175

175:                                              ; preds = %167
  %176 = load ptr, ptr %5, align 8
  %177 = load i8, ptr %176, align 1
  %178 = sext i8 %177 to i32
  %179 = icmp ne i32 %178, 0
  br i1 %179, label %180, label %190

180:                                              ; preds = %175
  %181 = load ptr, ptr %5, align 8
  %182 = load i8, ptr %181, align 1
  %183 = sext i8 %182 to i32
  %184 = icmp ne i32 %183, 47
  br i1 %184, label %185, label %190

185:                                              ; preds = %180
  %186 = load ptr, ptr %5, align 8
  %187 = load i8, ptr %186, align 1
  %188 = sext i8 %187 to i32
  %189 = icmp ne i32 %188, 63
  br label %190

190:                                              ; preds = %185, %180, %175
  %191 = phi i1 [ false, %180 ], [ false, %175 ], [ %189, %185 ]
  br i1 %191, label %167, label %192, !llvm.loop !20

192:                                              ; preds = %190
  %193 = load ptr, ptr %8, align 8
  store i8 0, ptr %193, align 1
  br label %194

194:                                              ; preds = %192, %163
  br label %195

195:                                              ; preds = %194
  %196 = load ptr, ptr %5, align 8
  %197 = load ptr, ptr %9, align 8
  %198 = icmp ult ptr %196, %197
  br i1 %198, label %35, label %199, !llvm.loop !21

199:                                              ; preds = %195, %152, %102, %74
  %200 = load ptr, ptr %10, align 8
  %201 = load ptr, ptr %7, align 8
  store ptr %200, ptr %201, align 8
  store i32 0, ptr %4, align 4
  br label %202

202:                                              ; preds = %199, %31, %23
  %203 = load i32, ptr %4, align 4
  ret i32 %203
}